target datalayout = "e-m:e-p270:32:32-p271:32:32-p272:64:64-i64:64-i128:128-f80:128-n8:16:32:64-S128"
target triple = "x86_64-pc-linux-gnu"

%"struct.arrow::internal::BitmapWordAlignParams" = type { i64, i64, i64, ptr, i64, i64 }

; Function Attrs: inlinehint mustprogress nounwind uwtable
define linkonce_odr noundef nonnull align 8 dereferenceable(8) ptr @_ZSt3minIlERKT_S2_S2_(ptr noundef nonnull align 8 dereferenceable(8) %0, ptr noundef nonnull align 8 dereferenceable(8) %1) #5 comdat {
  %3 = alloca ptr, align 8
  %4 = alloca ptr, align 8
  %5 = alloca ptr, align 8
  store ptr %0, ptr %4, align 8, !tbaa !19
  store ptr %1, ptr %5, align 8, !tbaa !19
  %6 = load ptr, ptr %5, align 8, !tbaa !19
  %7 = load i64, ptr %6, align 8, !tbaa !8
  %8 = load ptr, ptr %4, align 8, !tbaa !19
  %9 = load i64, ptr %8, align 8, !tbaa !8
  %10 = icmp slt i64 %7, %9
  br i1 %10, label %11, label %13

11:                                               ; preds = %2
  %12 = load ptr, ptr %5, align 8, !tbaa !19
  store ptr %12, ptr %3, align 8
  br label %15

13:                                               ; preds = %2
  %14 = load ptr, ptr %4, align 8, !tbaa !19
  store ptr %14, ptr %3, align 8
  br label %15

15:                                               ; preds = %13, %11
  %16 = load ptr, ptr %3, align 8
  ret ptr %16
}

; Function Attrs: mustprogress nounwind uwtable
define linkonce_odr noundef i64 @_ZN5arrow8bit_util17RoundUpToPowerOf2Emm(i64 noundef %0, i64 noundef %1) #3 comdat {
  %3 = alloca i64, align 8
  %4 = alloca i64, align 8
  store i64 %0, ptr %3, align 8, !tbaa !8
  store i64 %1, ptr %4, align 8, !tbaa !8
  %5 = load i64, ptr %3, align 8, !tbaa !8
  %6 = load i64, ptr %4, align 8, !tbaa !8
  %7 = sub i64 %6, 1
  %8 = add i64 %5, %7
  %9 = load i64, ptr %4, align 8, !tbaa !8
  %10 = sub i64 %9, 1
  %11 = xor i64 %10, -1
  %12 = and i64 %8, %11
  ret i64 %12
}

; Function Attrs: inlinehint mustprogress nounwind uwtable
define internal noundef i64 @_ZN5arrow8bit_utilL8PopCountEm(i64 noundef %0) #5 {
  %2 = alloca i64, align 8
  store i64 %0, ptr %2, align 8, !tbaa !8
  %3 = load i64, ptr %2, align 8, !tbaa !8
  %4 = call i64 @llvm.ctpop.i64(i64 %3)
  %5 = trunc i64 %4 to i32
  %6 = sext i32 %5 to i64
  ret i64 %6
}

; Function Attrs: mustprogress nounwind uwtable
define linkonce_odr noundef i64 @_ZN5arrow8bit_util9RoundDownEll(i64 noundef %0, i64 noundef %1) #3 comdat {
  %3 = alloca i64, align 8
  %4 = alloca i64, align 8
  store i64 %0, ptr %3, align 8, !tbaa !8
  store i64 %1, ptr %4, align 8, !tbaa !8
  %5 = load i64, ptr %3, align 8, !tbaa !8
  %6 = load i64, ptr %4, align 8, !tbaa !8
  %7 = sdiv i64 %5, %6
  %8 = load i64, ptr %4, align 8, !tbaa !8
  %9 = mul nsw i64 %7, %8
  ret i64 %9
}

; Function Attrs: mustprogress nounwind uwtable
define internal noundef zeroext i1 @_ZN5arrow8bit_utilL6GetBitEPKhm(ptr noundef %0, i64 noundef %1) #3 {
  %3 = alloca ptr, align 8
  %4 = alloca i64, align 8
  store ptr %0, ptr %3, align 8, !tbaa !3
  store i64 %1, ptr %4, align 8, !tbaa !8
  %5 = load ptr, ptr %3, align 8, !tbaa !3
  %6 = load i64, ptr %4, align 8, !tbaa !8
  %7 = lshr i64 %6, 3
  %8 = getelementptr inbounds nuw i8, ptr %5, i64 %7
  %9 = load i8, ptr %8, align 1, !tbaa !32
  %10 = zext i8 %9 to i32
  %11 = load i64, ptr %4, align 8, !tbaa !8
  %12 = and i64 %11, 7
  %13 = trunc i64 %12 to i32
  %14 = ashr i32 %10, %13
  %15 = and i32 %14, 1
  %16 = icmp ne i32 %15, 0
  ret i1 %16
}

; Function Attrs: inlinehint mustprogress uwtable
define linkonce_odr void @_ZN5arrow8internal15BitmapWordAlignILm8EEENS0_21BitmapWordAlignParamsEPKhll(ptr dead_on_unwind noalias writable sret(%"struct.arrow::internal::BitmapWordAlignParams") align 8 %0, ptr noundef %1, i64 noundef %2, i64 noundef %3) #2 comdat {
  %5 = alloca ptr, align 8
  %6 = alloca i64, align 8
  %7 = alloca i64, align 8
  %8 = alloca i64, align 8
  %9 = alloca i64, align 8
  %10 = alloca i64, align 8
  %11 = alloca i64, align 8
  store ptr %1, ptr %5, align 8, !tbaa !3
  store i64 %2, ptr %6, align 8, !tbaa !8
  store i64 %3, ptr %7, align 8, !tbaa !8
  call void @llvm.lifetime.start.p0(i64 8, ptr %8) #18
  store i64 64, ptr %8, align 8, !tbaa !8
  call void @llvm.lifetime.start.p0(i64 8, ptr %9) #18
  %12 = load ptr, ptr %5, align 8, !tbaa !3
  %13 = ptrtoint ptr %12 to i64
  %14 = mul i64 %13, 8
  %15 = load i64, ptr %6, align 8, !tbaa !8
  %16 = add i64 %14, %15
  store i64 %16, ptr %9, align 8, !tbaa !8
  call void @llvm.lifetime.start.p0(i64 8, ptr %10) #18
  %17 = load i64, ptr %9, align 8, !tbaa !8
  %18 = call noundef i64 @_ZN5arrow8bit_util17RoundUpToPowerOf2Emm(i64 noundef %17, i64 noundef 64)
  store i64 %18, ptr %10, align 8, !tbaa !8
  call void @llvm.lifetime.start.p0(i64 8, ptr %11) #18
  %19 = load i64, ptr %10, align 8, !tbaa !8
  %20 = load i64, ptr %9, align 8, !tbaa !8
  %21 = sub i64 %19, %20
  store i64 %21, ptr %11, align 8, !tbaa !8
  %22 = call noundef nonnull align 8 dereferenceable(8) ptr @_ZSt3minIlERKT_S2_S2_(ptr noundef nonnull align 8 dereferenceable(8) %7, ptr noundef nonnull align 8 dereferenceable(8) %11)
  %23 = load i64, ptr %22, align 8, !tbaa !8
  %24 = getelementptr inbounds nuw %"struct.arrow::internal::BitmapWordAlignParams", ptr %0, i32 0, i32 0
  store i64 %23, ptr %24, align 8, !tbaa !14
  call void @llvm.lifetime.end.p0(i64 8, ptr %11) #18
  %25 = load i64, ptr %7, align 8, !tbaa !8
  %26 = getelementptr inbounds nuw %"struct.arrow::internal::BitmapWordAlignParams", ptr %0, i32 0, i32 0
  %27 = load i64, ptr %26, align 8, !tbaa !14
  %28 = sub nsw i64 %25, %27
  %29 = udiv i64 %28, 64
  %30 = getelementptr inbounds nuw %"struct.arrow::internal::BitmapWordAlignParams", ptr %0, i32 0, i32 5
  store i64 %29, ptr %30, align 8, !tbaa !17
  %31 = getelementptr inbounds nuw %"struct.arrow::internal::BitmapWordAlignParams", ptr %0, i32 0, i32 5
  %32 = load i64, ptr %31, align 8, !tbaa !17
  %33 = mul i64 %32, 64
  %34 = getelementptr inbounds nuw %"struct.arrow::internal::BitmapWordAlignParams", ptr %0, i32 0, i32 4
  store i64 %33, ptr %34, align 8, !tbaa !30
  %35 = load i64, ptr %7, align 8, !tbaa !8
  %36 = getelementptr inbounds nuw %"struct.arrow::internal::BitmapWordAlignParams", ptr %0, i32 0, i32 0
  %37 = load i64, ptr %36, align 8, !tbaa !14
  %38 = sub nsw i64 %35, %37
  %39 = getelementptr inbounds nuw %"struct.arrow::internal::BitmapWordAlignParams", ptr %0, i32 0, i32 4
  %40 = load i64, ptr %39, align 8, !tbaa !30
  %41 = sub nsw i64 %38, %40
  %42 = getelementptr inbounds nuw %"struct.arrow::internal::BitmapWordAlignParams", ptr %0, i32 0, i32 1
  store i64 %41, ptr %42, align 8, !tbaa !31
  %43 = load i64, ptr %6, align 8, !tbaa !8
  %44 = getelementptr inbounds nuw %"struct.arrow::internal::BitmapWordAlignParams", ptr %0, i32 0, i32 0
  %45 = load i64, ptr %44, align 8, !tbaa !14
  %46 = add nsw i64 %43, %45
  %47 = getelementptr inbounds nuw %"struct.arrow::internal::BitmapWordAlignParams", ptr %0, i32 0, i32 4
  %48 = load i64, ptr %47, align 8, !tbaa !30
  %49 = add nsw i64 %46, %48
  %50 = getelementptr inbounds nuw %"struct.arrow::internal::BitmapWordAlignParams", ptr %0, i32 0, i32 2
  store i64 %49, ptr %50, align 8, !tbaa !28
  %51 = load ptr, ptr %5, align 8, !tbaa !3
  %52 = load i64, ptr %6, align 8, !tbaa !8
  %53 = getelementptr inbounds nuw %"struct.arrow::internal::BitmapWordAlignParams", ptr %0, i32 0, i32 0
  %54 = load i64, ptr %53, align 8, !tbaa !14
  %55 = add nsw i64 %52, %54
  %56 = sdiv i64 %55, 8
  %57 = getelementptr inbounds i8, ptr %51, i64 %56
  %58 = getelementptr inbounds nuw %"struct.arrow::internal::BitmapWordAlignParams", ptr %0, i32 0, i32 3
  store ptr %57, ptr %58, align 8, !tbaa !18
  call void @llvm.lifetime.end.p0(i64 8, ptr %10) #18
  call void @llvm.lifetime.end.p0(i64 8, ptr %9) #18
  call void @llvm.lifetime.end.p0(i64 8, ptr %8) #18
  ret void
}

; Function Attrs: mustprogress uwtable
define noundef i64 @_ZN5arrow8internal12CountSetBitsEPKhll(ptr noundef %0, i64 noundef %1, i64 noundef %2) #0 {
  %4 = alloca ptr, align 8
  %5 = alloca i64, align 8
  %6 = alloca i64, align 8
  %7 = alloca i64, align 8
  %8 = alloca i64, align 8
  %9 = alloca %"struct.arrow::internal::BitmapWordAlignParams", align 8
  %10 = alloca i64, align 8
  %11 = alloca ptr, align 8
  %12 = alloca ptr, align 8
  %13 = alloca i64, align 8
  %14 = alloca i64, align 8
  %15 = alloca [4 x i64], align 16
  %16 = alloca i64, align 8
  %17 = alloca i32, align 4
  %18 = alloca i64, align 8
  %19 = alloca i64, align 8
  %20 = alloca i64, align 8
  store ptr %0, ptr %4, align 8, !tbaa !3
  store i64 %1, ptr %5, align 8, !tbaa !8
  store i64 %2, ptr %6, align 8, !tbaa !8
  call void @llvm.lifetime.start.p0(i64 8, ptr %7) #18
  store i64 64, ptr %7, align 8, !tbaa !8
  br label %21

21:                                               ; preds = %22, %3
  br i1 false, label %22, label %23

22:                                               ; preds = %21
  br label %21, !llvm.loop !10

23:                                               ; preds = %21
  br label %24

24:                                               ; preds = %25, %23
  br i1 false, label %25, label %26

25:                                               ; preds = %24
  br label %24, !llvm.loop !12

26:                                               ; preds = %24
  br label %27

27:                                               ; preds = %28, %26
  br i1 false, label %28, label %29

28:                                               ; preds = %27
  br label %27, !llvm.loop !13

29:                                               ; preds = %27
  call void @llvm.lifetime.start.p0(i64 8, ptr %8) #18
  store i64 0, ptr %8, align 8, !tbaa !8
  call void @llvm.lifetime.start.p0(i64 48, ptr %9) #18
  %30 = load ptr, ptr %4, align 8, !tbaa !3
  %31 = load i64, ptr %5, align 8, !tbaa !8
  %32 = load i64, ptr %6, align 8, !tbaa !8
  call void @_ZN5arrow8internal15BitmapWordAlignILm8EEENS0_21BitmapWordAlignParamsEPKhll(ptr dead_on_unwind writable sret(%"struct.arrow::internal::BitmapWordAlignParams") align 8 %9, ptr noundef %30, i64 noundef %31, i64 noundef %32)
  call void @llvm.lifetime.start.p0(i64 8, ptr %10) #18
  %33 = load i64, ptr %5, align 8, !tbaa !8
  store i64 %33, ptr %10, align 8, !tbaa !8
  br label %34

34:                                               ; preds = %50, %29
  %35 = load i64, ptr %10, align 8, !tbaa !8
  %36 = load i64, ptr %5, align 8, !tbaa !8
  %37 = getelementptr inbounds nuw %"struct.arrow::internal::BitmapWordAlignParams", ptr %9, i32 0, i32 0
  %38 = load i64, ptr %37, align 8, !tbaa !14
  %39 = add nsw i64 %36, %38
  %40 = icmp slt i64 %35, %39
  br i1 %40, label %42, label %41

41:                                               ; preds = %34
  call void @llvm.lifetime.end.p0(i64 8, ptr %10) #18
  br label %53

42:                                               ; preds = %34
  %43 = load ptr, ptr %4, align 8, !tbaa !3
  %44 = load i64, ptr %10, align 8, !tbaa !8
  %45 = call noundef zeroext i1 @_ZN5arrow8bit_utilL6GetBitEPKhm(ptr noundef %43, i64 noundef %44)
  br i1 %45, label %46, label %49

46:                                               ; preds = %42
  %47 = load i64, ptr %8, align 8, !tbaa !8
  %48 = add nsw i64 %47, 1
  store i64 %48, ptr %8, align 8, !tbaa !8
  br label %49

49:                                               ; preds = %46, %42
  br label %50

50:                                               ; preds = %49
  %51 = load i64, ptr %10, align 8, !tbaa !8
  %52 = add nsw i64 %51, 1
  store i64 %52, ptr %10, align 8, !tbaa !8
  br label %34, !llvm.loop !16

53:                                               ; preds = %41
  %54 = getelementptr inbounds nuw %"struct.arrow::internal::BitmapWordAlignParams", ptr %9, i32 0, i32 5
  %55 = load i64, ptr %54, align 8, !tbaa !17
  %56 = icmp sgt i64 %55, 0
  br i1 %56, label %57, label %134

57:                                               ; preds = %53
  call void @llvm.lifetime.start.p0(i64 8, ptr %11) #18
  %58 = getelementptr inbounds nuw %"struct.arrow::internal::BitmapWordAlignParams", ptr %9, i32 0, i32 3
  %59 = load ptr, ptr %58, align 8, !tbaa !18
  store ptr %59, ptr %11, align 8, !tbaa !19
  br label %60

60:                                               ; preds = %61, %57
  br i1 false, label %61, label %62

61:                                               ; preds = %60
  br label %60, !llvm.loop !21

62:                                               ; preds = %60
  br label %63

63:                                               ; preds = %64, %62
  br i1 false, label %64, label %65

64:                                               ; preds = %63
  br label %63, !llvm.loop !22

65:                                               ; preds = %63
  br label %66

66:                                               ; preds = %67, %65
  br i1 false, label %67, label %68

67:                                               ; preds = %66
  br label %66, !llvm.loop !23

68:                                               ; preds = %66
  call void @llvm.lifetime.start.p0(i64 8, ptr %12) #18
  %69 = load ptr, ptr %11, align 8, !tbaa !19
  %70 = getelementptr inbounds nuw %"struct.arrow::internal::BitmapWordAlignParams", ptr %9, i32 0, i32 5
  %71 = load i64, ptr %70, align 8, !tbaa !17
  %72 = getelementptr inbounds i64, ptr %69, i64 %71
  store ptr %72, ptr %12, align 8, !tbaa !19
  call void @llvm.lifetime.start.p0(i64 8, ptr %13) #18
  store i64 4, ptr %13, align 8, !tbaa !8
  call void @llvm.lifetime.start.p0(i64 8, ptr %14) #18
  %73 = getelementptr inbounds nuw %"struct.arrow::internal::BitmapWordAlignParams", ptr %9, i32 0, i32 5
  %74 = load i64, ptr %73, align 8, !tbaa !17
  %75 = call noundef i64 @_ZN5arrow8bit_util9RoundDownEll(i64 noundef %74, i64 noundef 4)
  store i64 %75, ptr %14, align 8, !tbaa !8
  call void @llvm.lifetime.start.p0(i64 32, ptr %15) #18
  call void @llvm.memset.p0.i64(ptr align 16 %15, i8 0, i64 32, i1 false)
  call void @llvm.lifetime.start.p0(i64 8, ptr %16) #18
  store i64 0, ptr %16, align 8, !tbaa !8
  br label %76

76:                                               ; preds = %102, %68
  %77 = load i64, ptr %16, align 8, !tbaa !8
  %78 = load i64, ptr %14, align 8, !tbaa !8
  %79 = icmp slt i64 %77, %78
  br i1 %79, label %81, label %80

80:                                               ; preds = %76
  store i32 17, ptr %17, align 4
  call void @llvm.lifetime.end.p0(i64 8, ptr %16) #18
  br label %105

81:                                               ; preds = %76
  call void @llvm.lifetime.start.p0(i64 8, ptr %18) #18
  store i64 0, ptr %18, align 8, !tbaa !8
  br label %82

82:                                               ; preds = %96, %81
  %83 = load i64, ptr %18, align 8, !tbaa !8
  %84 = icmp slt i64 %83, 4
  br i1 %84, label %86, label %85

85:                                               ; preds = %82
  store i32 20, ptr %17, align 4
  call void @llvm.lifetime.end.p0(i64 8, ptr %18) #18
  br label %99

86:                                               ; preds = %82
  %87 = load ptr, ptr %11, align 8, !tbaa !19
  %88 = load i64, ptr %18, align 8, !tbaa !8
  %89 = getelementptr inbounds i64, ptr %87, i64 %88
  %90 = load i64, ptr %89, align 8, !tbaa !8
  %91 = call noundef i64 @_ZN5arrow8bit_utilL8PopCountEm(i64 noundef %90)
  %92 = load i64, ptr %18, align 8, !tbaa !8
  %93 = getelementptr inbounds [4 x i64], ptr %15, i64 0, i64 %92
  %94 = load i64, ptr %93, align 8, !tbaa !8
  %95 = add i64 %94, %91
  store i64 %95, ptr %93, align 8, !tbaa !8
  br label %96

96:                                               ; preds = %86
  %97 = load i64, ptr %18, align 8, !tbaa !8
  %98 = add nsw i64 %97, 1
  store i64 %98, ptr %18, align 8, !tbaa !8
  br label %82, !llvm.loop !24

99:                                               ; preds = %85
  %100 = load ptr, ptr %11, align 8, !tbaa !19
  %101 = getelementptr inbounds i64, ptr %100, i64 4
  store ptr %101, ptr %11, align 8, !tbaa !19
  br label %102

102:                                              ; preds = %99
  %103 = load i64, ptr %16, align 8, !tbaa !8
  %104 = add nsw i64 %103, 4
  store i64 %104, ptr %16, align 8, !tbaa !8
  br label %76, !llvm.loop !25

105:                                              ; preds = %80
  call void @llvm.lifetime.start.p0(i64 8, ptr %19) #18
  store i64 0, ptr %19, align 8, !tbaa !8
  br label %106

106:                                              ; preds = %116, %105
  %107 = load i64, ptr %19, align 8, !tbaa !8
  %108 = icmp slt i64 %107, 4
  br i1 %108, label %110, label %109

109:                                              ; preds = %106
  store i32 23, ptr %17, align 4
  call void @llvm.lifetime.end.p0(i64 8, ptr %19) #18
  br label %119

110:                                              ; preds = %106
  %111 = load i64, ptr %19, align 8, !tbaa !8
  %112 = getelementptr inbounds [4 x i64], ptr %15, i64 0, i64 %111
  %113 = load i64, ptr %112, align 8, !tbaa !8
  %114 = load i64, ptr %8, align 8, !tbaa !8
  %115 = add nsw i64 %114, %113
  store i64 %115, ptr %8, align 8, !tbaa !8
  br label %116

116:                                              ; preds = %110
  %117 = load i64, ptr %19, align 8, !tbaa !8
  %118 = add nsw i64 %117, 1
  store i64 %118, ptr %19, align 8, !tbaa !8
  br label %106, !llvm.loop !26

119:                                              ; preds = %109
  br label %120

120:                                              ; preds = %130, %119
  %121 = load ptr, ptr %11, align 8, !tbaa !19
  %122 = load ptr, ptr %12, align 8, !tbaa !19
  %123 = icmp ult ptr %121, %122
  br i1 %123, label %124, label %133

124:                                              ; preds = %120
  %125 = load ptr, ptr %11, align 8, !tbaa !19
  %126 = load i64, ptr %125, align 8, !tbaa !8
  %127 = call noundef i64 @_ZN5arrow8bit_utilL8PopCountEm(i64 noundef %126)
  %128 = load i64, ptr %8, align 8, !tbaa !8
  %129 = add i64 %128, %127
  store i64 %129, ptr %8, align 8, !tbaa !8
  br label %130

130:                                              ; preds = %124
  %131 = load ptr, ptr %11, align 8, !tbaa !19
  %132 = getelementptr inbounds nuw i64, ptr %131, i32 1
  store ptr %132, ptr %11, align 8, !tbaa !19
  br label %120, !llvm.loop !27

133:                                              ; preds = %120
  call void @llvm.lifetime.end.p0(i64 32, ptr %15) #18
  call void @llvm.lifetime.end.p0(i64 8, ptr %14) #18
  call void @llvm.lifetime.end.p0(i64 8, ptr %13) #18
  call void @llvm.lifetime.end.p0(i64 8, ptr %12) #18
  call void @llvm.lifetime.end.p0(i64 8, ptr %11) #18
  br label %134

134:                                              ; preds = %133, %53
  call void @llvm.lifetime.start.p0(i64 8, ptr %20) #18
  %135 = getelementptr inbounds nuw %"struct.arrow::internal::BitmapWordAlignParams", ptr %9, i32 0, i32 2
  %136 = load i64, ptr %135, align 8, !tbaa !28
  store i64 %136, ptr %20, align 8, !tbaa !8
  br label %137

137:                                              ; preds = %152, %134
  %138 = load i64, ptr %20, align 8, !tbaa !8
  %139 = load i64, ptr %5, align 8, !tbaa !8
  %140 = load i64, ptr %6, align 8, !tbaa !8
  %141 = add nsw i64 %139, %140
  %142 = icmp slt i64 %138, %141
  br i1 %142, label %144, label %143

143:                                              ; preds = %137
  store i32 29, ptr %17, align 4
  call void @llvm.lifetime.end.p0(i64 8, ptr %20) #18
  br label %155

144:                                              ; preds = %137
  %145 = load ptr, ptr %4, align 8, !tbaa !3
  %146 = load i64, ptr %20, align 8, !tbaa !8
  %147 = call noundef zeroext i1 @_ZN5arrow8bit_utilL6GetBitEPKhm(ptr noundef %145, i64 noundef %146)
  br i1 %147, label %148, label %151

148:                                              ; preds = %144
  %149 = load i64, ptr %8, align 8, !tbaa !8
  %150 = add nsw i64 %149, 1
  store i64 %150, ptr %8, align 8, !tbaa !8
  br label %151

151:                                              ; preds = %148, %144
  br label %152

152:                                              ; preds = %151
  %153 = load i64, ptr %20, align 8, !tbaa !8
  %154 = add nsw i64 %153, 1
  store i64 %154, ptr %20, align 8, !tbaa !8
  br label %137, !llvm.loop !29

155:                                              ; preds = %143
  %156 = load i64, ptr %8, align 8, !tbaa !8
  store i32 1, ptr %17, align 4
  call void @llvm.lifetime.end.p0(i64 48, ptr %9) #18
  call void @llvm.lifetime.end.p0(i64 8, ptr %8) #18
  call void @llvm.lifetime.end.p0(i64 8, ptr %7) #18
  ret i64 %156
}