; Function Attrs: mustprogress nofree norecurse nosync nounwind willreturn memory(argmem: read) uwtable
define noundef i64 @_ZN5arrow8internal12CountSetBitsEPKhll(ptr noundef %0, i64 noundef %1, i64 noundef %2) local_unnamed_addr #0 {
  %4 = alloca [4 x i64], align 16
  %5 = ptrtoint ptr %0 to i64
  %6 = shl i64 %5, 3
  %7 = add i64 %6, %1
  %8 = add i64 %7, 63
  %9 = and i64 %8, -64
  %10 = sub i64 %9, %7
  %.sroa.speculated.i = tail call i64 @llvm.smin.i64(i64 %10, i64 %2)
  %11 = sub nsw i64 %2, %.sroa.speculated.i
  %12 = lshr i64 %11, 6
  %13 = and i64 %11, -64
  %14 = add nsw i64 %.sroa.speculated.i, %1
  %15 = add nsw i64 %13, %14
  %16 = sdiv i64 %14, 8
  %17 = getelementptr inbounds i8, ptr %0, i64 %16
  %18 = icmp sgt i64 %.sroa.speculated.i, 0
  br i1 %18, label %.lr.ph, label %._crit_edge

._crit_edge:                                      ; preds = %.lr.ph, %3
  %.039.lcssa = phi i64 [ 0, %3 ], [ %spec.select, %.lr.ph ]
  %.not = icmp ult i64 %11, 64
  br i1 %.not, label %56, label %30

.lr.ph:                                           ; preds = %3, %.lr.ph
  %.03950 = phi i64 [ %spec.select, %.lr.ph ], [ 0, %3 ]
  %.04049 = phi i64 [ %28, %.lr.ph ], [ %1, %3 ]
  %19 = lshr i64 %.04049, 3
  %20 = getelementptr inbounds nuw i8, ptr %0, i64 %19
  %21 = load i8, ptr %20, align 1, !tbaa !3
  %22 = zext i8 %21 to i32
  %23 = trunc i64 %.04049 to i32
  %24 = and i32 %23, 7
  %25 = lshr i32 %22, %24
  %26 = and i32 %25, 1
  %27 = zext nneg i32 %26 to i64
  %spec.select = add nuw nsw i64 %.03950, %27
  %28 = add nsw i64 %.04049, 1
  %29 = icmp slt i64 %28, %14
  br i1 %29, label %.lr.ph, label %._crit_edge, !llvm.loop !6

30:                                               ; preds = %._crit_edge
  %31 = getelementptr inbounds nuw i64, ptr %17, i64 %12
  %32 = and i64 %12, 288230376151711740
  call void @llvm.lifetime.start.p0(i64 32, ptr nonnull %4) #23
  call void @llvm.memset.p0.i64(ptr noundef nonnull align 16 dereferenceable(32) %4, i8 0, i64 32, i1 false)
  %.not68 = icmp eq i64 %32, 0
  br i1 %.not68, label %.preheader47, label %.preheader48

.preheader48:                                     ; preds = %30, %33
  %.03853 = phi i64 [ %35, %33 ], [ 0, %30 ]
  %.04152 = phi ptr [ %34, %33 ], [ %17, %30 ]
  br label %37

.preheader47:                                     ; preds = %33, %30
  %.041.lcssa = phi ptr [ %17, %30 ], [ %34, %33 ]
  br label %46

33:                                               ; preds = %37
  %34 = getelementptr inbounds nuw i8, ptr %.04152, i64 32
  %35 = add nuw nsw i64 %.03853, 4
  %36 = icmp samesign ult i64 %35, %32
  br i1 %36, label %.preheader48, label %.preheader47, !llvm.loop !8

37:                                               ; preds = %.preheader48, %37
  %.03751 = phi i64 [ 0, %.preheader48 ], [ %44, %37 ]
  %38 = getelementptr inbounds nuw i64, ptr %.04152, i64 %.03751
  %39 = load i64, ptr %38, align 8, !tbaa !9
  %40 = tail call noundef range(i64 0, 65) i64 @llvm.ctpop.i64(i64 %39)
  %41 = getelementptr inbounds nuw [4 x i64], ptr %4, i64 0, i64 %.03751
  %42 = load i64, ptr %41, align 8, !tbaa !9
  %43 = add i64 %42, %40
  store i64 %43, ptr %41, align 8, !tbaa !9
  %44 = add nuw nsw i64 %.03751, 1
  %exitcond.not = icmp eq i64 %44, 4
  br i1 %exitcond.not, label %33, label %37, !llvm.loop !11

.preheader:                                       ; preds = %46
  %45 = icmp ult ptr %.041.lcssa, %31
  br i1 %45, label %.lr.ph59, label %._crit_edge60

46:                                               ; preds = %.preheader47, %46
  %.03656 = phi i64 [ 0, %.preheader47 ], [ %50, %46 ]
  %.355 = phi i64 [ %.039.lcssa, %.preheader47 ], [ %49, %46 ]
  %47 = getelementptr inbounds nuw [4 x i64], ptr %4, i64 0, i64 %.03656
  %48 = load i64, ptr %47, align 8, !tbaa !9
  %49 = add nsw i64 %48, %.355
  %50 = add nuw nsw i64 %.03656, 1
  %exitcond71.not = icmp eq i64 %50, 4
  br i1 %exitcond71.not, label %.preheader, label %46, !llvm.loop !12

.lr.ph59:                                         ; preds = %.preheader, %.lr.ph59
  %.458 = phi i64 [ %53, %.lr.ph59 ], [ %49, %.preheader ]
  %.14257 = phi ptr [ %54, %.lr.ph59 ], [ %.041.lcssa, %.preheader ]
  %51 = load i64, ptr %.14257, align 8, !tbaa !9
  %52 = tail call noundef range(i64 0, 65) i64 @llvm.ctpop.i64(i64 %51)
  %53 = add i64 %52, %.458
  %54 = getelementptr inbounds nuw i8, ptr %.14257, i64 8
  %55 = icmp ult ptr %54, %31
  br i1 %55, label %.lr.ph59, label %._crit_edge60, !llvm.loop !13

._crit_edge60:                                    ; preds = %.lr.ph59, %.preheader
  %.4.lcssa = phi i64 [ %49, %.preheader ], [ %53, %.lr.ph59 ]
  call void @llvm.lifetime.end.p0(i64 32, ptr nonnull %4) #23
  br label %56

56:                                               ; preds = %._crit_edge60, %._crit_edge
  %.2 = phi i64 [ %.4.lcssa, %._crit_edge60 ], [ %.039.lcssa, %._crit_edge ]
  %57 = add nsw i64 %2, %1
  %58 = icmp slt i64 %15, %57
  br i1 %58, label %.lr.ph65, label %._crit_edge66

._crit_edge66:                                    ; preds = %.lr.ph65, %56
  %.5.lcssa = phi i64 [ %.2, %56 ], [ %spec.select44, %.lr.ph65 ]
  ret i64 %.5.lcssa

.lr.ph65:                                         ; preds = %56, %.lr.ph65
  %.063 = phi i64 [ %68, %.lr.ph65 ], [ %15, %56 ]
  %.562 = phi i64 [ %spec.select44, %.lr.ph65 ], [ %.2, %56 ]
  %59 = lshr i64 %.063, 3
  %60 = getelementptr inbounds nuw i8, ptr %0, i64 %59
  %61 = load i8, ptr %60, align 1, !tbaa !3
  %62 = zext i8 %61 to i32
  %63 = trunc i64 %.063 to i32
  %64 = and i32 %63, 7
  %65 = lshr i32 %62, %64
  %66 = and i32 %65, 1
  %67 = zext nneg i32 %66 to i64
  %spec.select44 = add nsw i64 %.562, %67
  %68 = add nsw i64 %.063, 1
  %69 = icmp slt i64 %68, %57
  br i1 %69, label %.lr.ph65, label %._crit_edge66, !llvm.loop !14
}